; Function Attrs: mustprogress nofree norecurse nosync nounwind willreturn memory(argmem: write) uwtable
define noundef i64 @_Z16fast_rv32i_auipcP11processor_t6insn_tm(ptr nocapture noundef writeonly %0, i64 %1, i64 noundef %2) local_unnamed_addr #3 {
  %4 = lshr i64 %1, 7
  %5 = and i64 %4, 31
  %.not.i = icmp eq i64 %5, 0
  br i1 %.not.i, label %_ZN9regfile_tImLm32ELb1EE5writeEmm.exit, label %6

6:                                                ; preds = %3
  %7 = getelementptr inbounds i8, ptr %0, i64 120
  %8 = and i64 %1, 4294963200
  %9 = add i64 %8, %2
  %10 = shl i64 %9, 32
  %11 = ashr exact i64 %10, 32
  %12 = getelementptr inbounds [32 x i64], ptr %7, i64 0, i64 %5
  store i64 %11, ptr %12, align 8
  br label %_ZN9regfile_tImLm32ELb1EE5writeEmm.exit

_ZN9regfile_tImLm32ELb1EE5writeEmm.exit:          ; preds = %3, %6
  %13 = shl i64 %2, 32
  %14 = add i64 %13, 17179869184
  %15 = ashr exact i64 %14, 32
  ret i64 %15
}